; ModuleID = 'source-C-CXX/10/357.c'
source_filename = "source-C-CXX/10/357.c"
target datalayout = "e-m:e-p270:32:32-p271:32:32-p272:64:64-i64:64-f80:128-n8:16:32:64-S128"
target triple = "x86_64-pc-linux-gnu"

@.str = private unnamed_addr constant [9 x i8] c"%d %d %d\00", align 1
@__const.main.a = private unnamed_addr constant [12 x i32] [i32 0, i32 31, i32 60, i32 91, i32 121, i32 152, i32 182, i32 213, i32 244, i32 274, i32 305, i32 335], align 16
@.str.1 = private unnamed_addr constant [4 x i8] c"%d\0A\00", align 1
@__const.main.a.2 = private unnamed_addr constant [12 x i32] [i32 0, i32 31, i32 59, i32 90, i32 120, i32 151, i32 181, i32 212, i32 243, i32 273, i32 304, i32 334], align 16

; Function Attrs: nofree nounwind sspstrong uwtable
define dso_local i32 @main() local_unnamed_addr #0 {
  %1 = alloca i32, align 4
  %2 = alloca i32, align 4
  %3 = alloca i32, align 4
  %4 = bitcast i32* %1 to i8*
  call void @llvm.lifetime.start.p0i8(i64 4, i8* nonnull %4) #3
  %5 = bitcast i32* %2 to i8*
  call void @llvm.lifetime.start.p0i8(i64 4, i8* nonnull %5) #3
  %6 = bitcast i32* %3 to i8*
  call void @llvm.lifetime.start.p0i8(i64 4, i8* nonnull %6) #3
  %7 = call i32 (i8*, ...) @__isoc99_scanf(i8* getelementptr inbounds ([9 x i8], [9 x i8]* @.str, i64 0, i64 0), i32* nonnull %1, i32* nonnull %2, i32* nonnull %3)
  %8 = load i32, i32* %1, align 4, !tbaa !5
  %9 = and i32 %8, 3
  %10 = icmp eq i32 %9, 0
  %11 = srem i32 %8, 100
  %12 = icmp ne i32 %11, 0
  %13 = and i1 %10, %12
  %14 = srem i32 %8, 400
  %15 = icmp eq i32 %14, 0
  %16 = select i1 %13, i1 true, i1 %15
  %17 = load i32, i32* %2, align 4, !tbaa !5
  %18 = add nsw i32 %17, -1
  %19 = sext i32 %18 to i64
  br i1 %16, label %20, label %25

20:                                               ; preds = %0
  %21 = getelementptr inbounds [12 x i32], [12 x i32]* @__const.main.a, i64 0, i64 %19
  %22 = load i32, i32* %21, align 4, !tbaa !5
  %23 = load i32, i32* %3, align 4, !tbaa !5
  %24 = add nsw i32 %23, %22
  br label %30

25:                                               ; preds = %0
  %26 = getelementptr inbounds [12 x i32], [12 x i32]* @__const.main.a.2, i64 0, i64 %19
  %27 = load i32, i32* %26, align 4, !tbaa !5
  %28 = load i32, i32* %3, align 4, !tbaa !5
  %29 = add nsw i32 %28, %27
  br label %30

30:                                               ; preds = %25, %20
  %31 = phi i32 [ %29, %25 ], [ %24, %20 ]
  %32 = call i32 (i8*, ...) @printf(i8* nonnull dereferenceable(1) getelementptr inbounds ([4 x i8], [4 x i8]* @.str.1, i64 0, i64 0), i32 %31)
  call void @llvm.lifetime.end.p0i8(i64 4, i8* nonnull %6) #3
  call void @llvm.lifetime.end.p0i8(i64 4, i8* nonnull %5) #3
  call void @llvm.lifetime.end.p0i8(i64 4, i8* nonnull %4) #3
  ret i32 0
}

; Function Attrs: argmemonly mustprogress nofree nosync nounwind willreturn
declare void @llvm.lifetime.start.p0i8(i64 immarg, i8* nocapture) #1

; Function Attrs: nofree nounwind
declare noundef i32 @__isoc99_scanf(i8* nocapture noundef readonly, ...) local_unnamed_addr #2

; Function Attrs: nofree nounwind
declare noundef i32 @printf(i8* nocapture noundef readonly, ...) local_unnamed_addr #2

; Function Attrs: argmemonly mustprogress nofree nosync nounwind willreturn
declare void @llvm.lifetime.end.p0i8(i64 immarg, i8* nocapture) #1


!llvm.module.flags = !{!0, !1, !2, !3}
!llvm.ident = !{!4}

!0 = !{i32 1, !"wchar_size", i32 4}
!1 = !{i32 7, !"PIC Level", i32 2}
!2 = !{i32 7, !"PIE Level", i32 2}
!3 = !{i32 7, !"uwtable", i32 1}
!4 = !{!"clang version 13.0.0"}
!5 = !{!6, !6, i64 0}
!6 = !{!"int", !7, i64 0}
!7 = !{!"omnipotent char", !8, i64 0}
!8 = !{!"Simple C/C++ TBAA"}
